; Function Attrs: mustprogress nounwind uwtable
define internal fastcc void @_ZN5faiss12_GLOBAL__N_114CostCalculatorD2Ev(ptr nocapture noundef nonnull readonly align 8 dereferenceable(48) %0) unnamed_addr #6 align 2 personality ptr @__gxx_personality_v0 {
  %2 = getelementptr inbounds i8, ptr %0, i64 24
  %3 = load ptr, ptr %2, align 8
  %.not.i.i.i = icmp eq ptr %3, null
  br i1 %.not.i.i.i, label %_ZNSt6vectorIdSaIdEED2Ev.exit, label %4

4:                                                ; preds = %1
  tail call void @_ZdlPv(ptr noundef nonnull %3) #18
  br label %_ZNSt6vectorIdSaIdEED2Ev.exit

_ZNSt6vectorIdSaIdEED2Ev.exit:                    ; preds = %1, %4
  %5 = load ptr, ptr %0, align 8
  %.not.i.i.i1 = icmp eq ptr %5, null
  br i1 %.not.i.i.i1, label %_ZNSt6vectorIdSaIdEED2Ev.exit2, label %6

6:                                                ; preds = %_ZNSt6vectorIdSaIdEED2Ev.exit
  tail call void @_ZdlPv(ptr noundef nonnull %5) #18
  br label %_ZNSt6vectorIdSaIdEED2Ev.exit2

_ZNSt6vectorIdSaIdEED2Ev.exit2:                   ; preds = %_ZNSt6vectorIdSaIdEED2Ev.exit, %6
  ret void
}